target datalayout = "e-m:e-p270:32:32-p271:32:32-p272:64:64-i64:64-i128:128-f80:128-n8:16:32:64-S128"
target triple = "x86_64-pc-linux-gnu"

%struct.DdManager = type { %struct.DdNode, ptr, ptr, ptr, ptr, ptr, ptr, ptr, i32, i32, double, double, double, i32, i32, i32, i32, i32, i32, ptr, ptr, %struct.DdSubtable, i32, i32, i32, i32, i32, i32, i32, double, i32, i32, i32, ptr, i64, double, i32, ptr, ptr, ptr, ptr, ptr, ptr, ptr, i32, ptr, ptr, ptr, ptr, ptr, ptr, i32, i32, i32, double, i32, i32, i32, i32, double, double, i32, i32, i32, i32, i32, i32, i32, i32, i32, ptr, ptr, i32, i32, i32, i32, i32, i32, ptr, ptr, ptr, ptr, ptr, ptr, ptr, ptr, i32, i64, i64, i64, i32, i64, i64, double, double, double, double, double, double, i32, ptr, ptr, i64 }
%struct.DdNode = type { i32, i32, ptr, %union.anon, i64 }
%union.anon = type { %struct.DdChildren }
%struct.DdChildren = type { ptr, ptr }
%struct.DdSubtable = type { ptr, i32, i32, i32, i32, i32, i32, i32, i32, i32, i32, i32 }
%struct.MtrNode = type { i32, i32, i32, i32, ptr, ptr, ptr, ptr }

; Function Attrs: nounwind uwtable
define internal i32 @ddTreeSiftingAux(ptr noundef %0, ptr noundef %1, i32 noundef %2) #0 {
  %4 = alloca i32, align 4
  %5 = alloca ptr, align 8
  %6 = alloca ptr, align 8
  %7 = alloca i32, align 4
  %8 = alloca ptr, align 8
  %9 = alloca i32, align 4
  %10 = alloca i32, align 4
  %11 = alloca i32, align 4
  store ptr %0, ptr %5, align 8, !tbaa !3
  store ptr %1, ptr %6, align 8, !tbaa !29
  store i32 %2, ptr %7, align 4, !tbaa !8
  call void @llvm.lifetime.start.p0(i64 8, ptr %8) #6
  call void @llvm.lifetime.start.p0(i64 4, ptr %9) #6
  call void @llvm.lifetime.start.p0(i64 4, ptr %10) #6
  %12 = load ptr, ptr %6, align 8, !tbaa !29
  store ptr %12, ptr %8, align 8, !tbaa !29
  br label %13

13:                                               ; preds = %68, %3
  %14 = load ptr, ptr %8, align 8, !tbaa !29
  %15 = icmp ne ptr %14, null
  br i1 %15, label %16, label %72

16:                                               ; preds = %13
  %17 = load ptr, ptr %8, align 8, !tbaa !29
  %18 = getelementptr inbounds nuw %struct.MtrNode, ptr %17, i32 0, i32 5
  %19 = load ptr, ptr %18, align 8, !tbaa !38
  %20 = icmp ne ptr %19, null
  br i1 %20, label %21, label %54

21:                                               ; preds = %16
  %22 = load ptr, ptr %5, align 8, !tbaa !3
  %23 = load ptr, ptr %8, align 8, !tbaa !29
  %24 = getelementptr inbounds nuw %struct.MtrNode, ptr %23, i32 0, i32 5
  %25 = load ptr, ptr %24, align 8, !tbaa !38
  %26 = load i32, ptr %7, align 4, !tbaa !8
  %27 = call i32 @ddTreeSiftingAux(ptr noundef %22, ptr noundef %25, i32 noundef %26)
  %28 = icmp ne i32 %27, 0
  br i1 %28, label %30, label %29

29:                                               ; preds = %21
  store i32 0, ptr %4, align 4
  store i32 1, ptr %11, align 4
  br label %73

30:                                               ; preds = %21
  %31 = load ptr, ptr %5, align 8, !tbaa !3
  %32 = getelementptr inbounds nuw %struct.DdManager, ptr %31, i32 0, i32 72
  %33 = load i32, ptr %32, align 8, !tbaa !39
  store i32 %33, ptr %10, align 4, !tbaa !8
  %34 = load ptr, ptr %5, align 8, !tbaa !3
  %35 = getelementptr inbounds nuw %struct.DdManager, ptr %34, i32 0, i32 72
  store i32 0, ptr %35, align 8, !tbaa !39
  %36 = load i32, ptr %7, align 4, !tbaa !8
  %37 = icmp ne i32 %36, 20
  br i1 %37, label %38, label %42

38:                                               ; preds = %30
  %39 = load ptr, ptr %5, align 8, !tbaa !3
  %40 = load ptr, ptr %8, align 8, !tbaa !29
  %41 = call i32 @ddReorderChildren(ptr noundef %39, ptr noundef %40, i32 noundef 14)
  store i32 %41, ptr %9, align 4, !tbaa !8
  br label %46

42:                                               ; preds = %30
  %43 = load ptr, ptr %5, align 8, !tbaa !3
  %44 = load ptr, ptr %8, align 8, !tbaa !29
  %45 = call i32 @ddReorderChildren(ptr noundef %43, ptr noundef %44, i32 noundef 20)
  store i32 %45, ptr %9, align 4, !tbaa !8
  br label %46

46:                                               ; preds = %42, %38
  %47 = load i32, ptr %10, align 4, !tbaa !8
  %48 = load ptr, ptr %5, align 8, !tbaa !3
  %49 = getelementptr inbounds nuw %struct.DdManager, ptr %48, i32 0, i32 72
  store i32 %47, ptr %49, align 8, !tbaa !39
  %50 = load i32, ptr %9, align 4, !tbaa !8
  %51 = icmp eq i32 %50, 0
  br i1 %51, label %52, label %53

52:                                               ; preds = %46
  store i32 0, ptr %4, align 4
  store i32 1, ptr %11, align 4
  br label %73

53:                                               ; preds = %46
  br label %68

54:                                               ; preds = %16
  %55 = load ptr, ptr %8, align 8, !tbaa !29
  %56 = getelementptr inbounds nuw %struct.MtrNode, ptr %55, i32 0, i32 2
  %57 = load i32, ptr %56, align 8, !tbaa !33
  %58 = icmp ugt i32 %57, 1
  br i1 %58, label %59, label %67

59:                                               ; preds = %54
  %60 = load ptr, ptr %5, align 8, !tbaa !3
  %61 = load ptr, ptr %8, align 8, !tbaa !29
  %62 = load i32, ptr %7, align 4, !tbaa !8
  %63 = call i32 @ddReorderChildren(ptr noundef %60, ptr noundef %61, i32 noundef %62)
  %64 = icmp ne i32 %63, 0
  br i1 %64, label %66, label %65

65:                                               ; preds = %59
  store i32 0, ptr %4, align 4
  store i32 1, ptr %11, align 4
  br label %73

66:                                               ; preds = %59
  br label %67

67:                                               ; preds = %66, %54
  br label %68

68:                                               ; preds = %67, %53
  %69 = load ptr, ptr %8, align 8, !tbaa !29
  %70 = getelementptr inbounds nuw %struct.MtrNode, ptr %69, i32 0, i32 7
  %71 = load ptr, ptr %70, align 8, !tbaa !40
  store ptr %71, ptr %8, align 8, !tbaa !29
  br label %13, !llvm.loop !41

72:                                               ; preds = %13
  store i32 1, ptr %4, align 4
  store i32 1, ptr %11, align 4
  br label %73

73:                                               ; preds = %72, %65, %52, %29
  call void @llvm.lifetime.end.p0(i64 4, ptr %10) #6
  call void @llvm.lifetime.end.p0(i64 4, ptr %9) #6
  call void @llvm.lifetime.end.p0(i64 8, ptr %8) #6
  %74 = load i32, ptr %4, align 4
  ret i32 %74
}