; Function Attrs: nounwind uwtable
define internal fastcc range(i32 0, 2) i32 @ddTreeSiftingAux(ptr noundef %0, ptr noundef %1, i32 noundef %2) unnamed_addr #0 {
  %.not28 = icmp eq ptr %1, null
  br i1 %.not28, label %._crit_edge, label %.lr.ph

.lr.ph:                                           ; preds = %3
  %4 = getelementptr inbounds nuw i8, ptr %0, i64 536
  %.not27 = icmp eq i32 %2, 20
  br i1 %.not27, label %.lr.ph.split.us, label %.lr.ph.split

.lr.ph.split.us:                                  ; preds = %.lr.ph, %19
  %.02229.us = phi ptr [ %21, %19 ], [ %1, %.lr.ph ]
  %5 = getelementptr inbounds nuw i8, ptr %.02229.us, i64 24
  %6 = load ptr, ptr %5, align 8, !tbaa !35
  %.not24.us = icmp eq ptr %6, null
  br i1 %.not24.us, label %13, label %7

7:                                                ; preds = %.lr.ph.split.us
  %8 = tail call fastcc i32 @ddTreeSiftingAux(ptr noundef %0, ptr noundef nonnull %6, i32 noundef 20)
  %.not26.us = icmp eq i32 %8, 0
  br i1 %.not26.us, label %._crit_edge, label %9

9:                                                ; preds = %7
  %10 = load i32, ptr %4, align 8, !tbaa !36
  store i32 0, ptr %4, align 8, !tbaa !36
  %11 = tail call fastcc i32 @ddReorderChildren(ptr noundef nonnull %0, ptr noundef %.02229.us, i32 noundef 20)
  store i32 %10, ptr %4, align 8, !tbaa !36
  %12 = icmp eq i32 %11, 0
  br i1 %12, label %._crit_edge, label %19

13:                                               ; preds = %.lr.ph.split.us
  %14 = getelementptr inbounds nuw i8, ptr %.02229.us, i64 8
  %15 = load i32, ptr %14, align 8, !tbaa !30
  %16 = icmp ugt i32 %15, 1
  br i1 %16, label %17, label %19

17:                                               ; preds = %13
  %18 = tail call fastcc i32 @ddReorderChildren(ptr noundef %0, ptr noundef %.02229.us, i32 noundef 20)
  %.not25.us = icmp eq i32 %18, 0
  br i1 %.not25.us, label %._crit_edge, label %19

19:                                               ; preds = %17, %13, %9
  %20 = getelementptr inbounds nuw i8, ptr %.02229.us, i64 40
  %21 = load ptr, ptr %20, align 8, !tbaa !37
  %.not.us = icmp eq ptr %21, null
  br i1 %.not.us, label %._crit_edge, label %.lr.ph.split.us, !llvm.loop !38

.lr.ph.split:                                     ; preds = %.lr.ph, %36
  %.02229 = phi ptr [ %38, %36 ], [ %1, %.lr.ph ]
  %22 = getelementptr inbounds nuw i8, ptr %.02229, i64 24
  %23 = load ptr, ptr %22, align 8, !tbaa !35
  %.not24 = icmp eq ptr %23, null
  br i1 %.not24, label %30, label %24

24:                                               ; preds = %.lr.ph.split
  %25 = tail call fastcc i32 @ddTreeSiftingAux(ptr noundef %0, ptr noundef nonnull %23, i32 noundef %2)
  %.not26 = icmp eq i32 %25, 0
  br i1 %.not26, label %._crit_edge, label %26

26:                                               ; preds = %24
  %27 = load i32, ptr %4, align 8, !tbaa !36
  store i32 0, ptr %4, align 8, !tbaa !36
  %28 = tail call fastcc i32 @ddReorderChildren(ptr noundef nonnull %0, ptr noundef %.02229, i32 noundef 14)
  store i32 %27, ptr %4, align 8, !tbaa !36
  %29 = icmp eq i32 %28, 0
  br i1 %29, label %._crit_edge, label %36

30:                                               ; preds = %.lr.ph.split
  %31 = getelementptr inbounds nuw i8, ptr %.02229, i64 8
  %32 = load i32, ptr %31, align 8, !tbaa !30
  %33 = icmp ugt i32 %32, 1
  br i1 %33, label %34, label %36

34:                                               ; preds = %30
  %35 = tail call fastcc i32 @ddReorderChildren(ptr noundef %0, ptr noundef %.02229, i32 noundef %2)
  %.not25 = icmp eq i32 %35, 0
  br i1 %.not25, label %._crit_edge, label %36

36:                                               ; preds = %30, %34, %26
  %37 = getelementptr inbounds nuw i8, ptr %.02229, i64 40
  %38 = load ptr, ptr %37, align 8, !tbaa !37
  %.not = icmp eq ptr %38, null
  br i1 %.not, label %._crit_edge, label %.lr.ph.split, !llvm.loop !38

._crit_edge:                                      ; preds = %24, %26, %34, %36, %7, %9, %17, %19, %3
  %.0 = phi i32 [ 1, %3 ], [ 1, %19 ], [ 0, %17 ], [ 0, %9 ], [ 0, %7 ], [ 1, %36 ], [ 0, %34 ], [ 0, %26 ], [ 0, %24 ]
  ret i32 %.0
}